; Function Attrs: nofree nosync nounwind memory(argmem: readwrite) uwtable
define void @Abc_SortCost2Reverse_rec(ptr noundef %0, ptr noundef %1, ptr noundef %2, ptr noundef %3) local_unnamed_addr #1 {
  %5 = ptrtoint ptr %1 to i64
  %6 = ptrtoint ptr %0 to i64
  %7 = sub i64 %5, %6
  %8 = lshr exact i64 %7, 2
  %9 = trunc i64 %8 to i32
  switch i32 %9, label %22 [
    i32 1, label %.loopexit
    i32 2, label %10
  ]

10:                                               ; preds = %4
  %11 = load i32, ptr %0, align 4
  %12 = sext i32 %11 to i64
  %13 = getelementptr inbounds i32, ptr %3, i64 %12
  %14 = load i32, ptr %13, align 4
  %15 = getelementptr inbounds nuw i8, ptr %0, i64 4
  %16 = load i32, ptr %15, align 4
  %17 = sext i32 %16 to i64
  %18 = getelementptr inbounds i32, ptr %3, i64 %17
  %19 = load i32, ptr %18, align 4
  %20 = icmp slt i32 %14, %19
  br i1 %20, label %21, label %.loopexit

21:                                               ; preds = %10
  store i32 %11, ptr %15, align 4
  store i32 %16, ptr %0, align 4
  br label %.loopexit

22:                                               ; preds = %4
  %23 = icmp slt i32 %9, 8
  br i1 %23, label %.preheader, label %45

.preheader:                                       ; preds = %22
  %24 = icmp sgt i32 %9, 1
  br i1 %24, label %.lr.ph66.preheader, label %.loopexit

.lr.ph66.preheader:                               ; preds = %.preheader
  %25 = add nuw nsw i64 %8, 4294967295
  %wide.trip.count73 = and i64 %25, 4294967295
  %wide.trip.count = and i64 %8, 2147483647
  br label %.lr.ph.preheader

.lr.ph.preheader:                                 ; preds = %._crit_edge, %.lr.ph66.preheader
  %indvars.iv70 = phi i64 [ 0, %.lr.ph66.preheader ], [ %indvars.iv.next71, %._crit_edge ]
  %indvars.iv = phi i64 [ 1, %.lr.ph66.preheader ], [ %indvars.iv.next, %._crit_edge ]
  %indvars.iv.next71 = add nuw nsw i64 %indvars.iv70, 1
  %26 = trunc nuw nsw i64 %indvars.iv70 to i32
  br label %.lr.ph

.lr.ph:                                           ; preds = %.lr.ph.preheader, %.lr.ph
  %indvars.iv67 = phi i64 [ %indvars.iv, %.lr.ph.preheader ], [ %indvars.iv.next68, %.lr.ph ]
  %.064 = phi i32 [ %26, %.lr.ph.preheader ], [ %spec.select, %.lr.ph ]
  %27 = getelementptr inbounds nuw i32, ptr %0, i64 %indvars.iv67
  %28 = load i32, ptr %27, align 4
  %29 = sext i32 %28 to i64
  %30 = getelementptr inbounds i32, ptr %3, i64 %29
  %31 = load i32, ptr %30, align 4
  %32 = sext i32 %.064 to i64
  %33 = getelementptr inbounds i32, ptr %0, i64 %32
  %34 = load i32, ptr %33, align 4
  %35 = sext i32 %34 to i64
  %36 = getelementptr inbounds i32, ptr %3, i64 %35
  %37 = load i32, ptr %36, align 4
  %38 = icmp sgt i32 %31, %37
  %39 = trunc nuw nsw i64 %indvars.iv67 to i32
  %spec.select = select i1 %38, i32 %39, i32 %.064
  %indvars.iv.next68 = add nuw nsw i64 %indvars.iv67, 1
  %exitcond.not = icmp eq i64 %indvars.iv.next68, %wide.trip.count
  br i1 %exitcond.not, label %._crit_edge, label %.lr.ph, !llvm.loop !18

._crit_edge:                                      ; preds = %.lr.ph
  %40 = getelementptr inbounds nuw i32, ptr %0, i64 %indvars.iv70
  %41 = load i32, ptr %40, align 4
  %42 = sext i32 %spec.select to i64
  %43 = getelementptr inbounds i32, ptr %0, i64 %42
  %44 = load i32, ptr %43, align 4
  store i32 %44, ptr %40, align 4
  store i32 %41, ptr %43, align 4
  %indvars.iv.next = add nuw nsw i64 %indvars.iv, 1
  %exitcond74.not = icmp eq i64 %indvars.iv.next71, %wide.trip.count73
  br i1 %exitcond74.not, label %.loopexit, label %.lr.ph.preheader, !llvm.loop !19

45:                                               ; preds = %22
  %46 = lshr i64 %7, 3
  %47 = and i64 %46, 2147483647
  %48 = getelementptr inbounds nuw i32, ptr %0, i64 %47
  tail call void @Abc_SortCost2Reverse_rec(ptr noundef %0, ptr noundef %48, ptr noundef %2, ptr noundef %3)
  %49 = getelementptr inbounds nuw i32, ptr %2, i64 %47
  tail call void @Abc_SortCost2Reverse_rec(ptr noundef %48, ptr noundef %1, ptr noundef %49, ptr noundef %3)
  %50 = icmp ne i64 %47, 0
  %51 = icmp ult ptr %48, %1
  %52 = and i1 %50, %51
  br i1 %52, label %.lr.ph.i, label %.preheader41.i

.preheader41.i:                                   ; preds = %75, %45
  %.036.lcssa.i = phi ptr [ %2, %45 ], [ %.137.i, %75 ]
  %.033.lcssa.i = phi ptr [ %48, %45 ], [ %.134.i, %75 ]
  %.0.lcssa.i = phi ptr [ %0, %45 ], [ %.1.i, %75 ]
  %53 = icmp ult ptr %.0.lcssa.i, %48
  br i1 %53, label %.lr.ph49.i, label %.preheader.i

.lr.ph.i:                                         ; preds = %45, %75
  %.044.i = phi ptr [ %.1.i, %75 ], [ %0, %45 ]
  %.03343.i = phi ptr [ %.134.i, %75 ], [ %48, %45 ]
  %.03642.i = phi ptr [ %.137.i, %75 ], [ %2, %45 ]
  %54 = load i32, ptr %.044.i, align 4
  %55 = sext i32 %54 to i64
  %56 = getelementptr inbounds i32, ptr %3, i64 %55
  %57 = load i32, ptr %56, align 4
  %58 = load i32, ptr %.03343.i, align 4
  %59 = sext i32 %58 to i64
  %60 = getelementptr inbounds i32, ptr %3, i64 %59
  %61 = load i32, ptr %60, align 4
  %62 = icmp eq i32 %57, %61
  %63 = getelementptr inbounds nuw i8, ptr %.03642.i, i64 4
  br i1 %62, label %64, label %69

64:                                               ; preds = %.lr.ph.i
  %65 = getelementptr inbounds nuw i8, ptr %.044.i, i64 4
  store i32 %54, ptr %.03642.i, align 4
  %66 = getelementptr inbounds nuw i8, ptr %.03343.i, i64 4
  %67 = load i32, ptr %.03343.i, align 4
  %68 = getelementptr inbounds nuw i8, ptr %.03642.i, i64 8
  store i32 %67, ptr %63, align 4
  br label %75

69:                                               ; preds = %.lr.ph.i
  %70 = icmp sgt i32 %57, %61
  br i1 %70, label %71, label %73

71:                                               ; preds = %69
  %72 = getelementptr inbounds nuw i8, ptr %.044.i, i64 4
  store i32 %54, ptr %.03642.i, align 4
  br label %75

73:                                               ; preds = %69
  %74 = getelementptr inbounds nuw i8, ptr %.03343.i, i64 4
  store i32 %58, ptr %.03642.i, align 4
  br label %75

75:                                               ; preds = %73, %71, %64
  %.137.i = phi ptr [ %68, %64 ], [ %63, %71 ], [ %63, %73 ]
  %.134.i = phi ptr [ %66, %64 ], [ %.03343.i, %71 ], [ %74, %73 ]
  %.1.i = phi ptr [ %65, %64 ], [ %72, %71 ], [ %.044.i, %73 ]
  %76 = icmp ult ptr %.1.i, %48
  %77 = icmp ult ptr %.134.i, %1
  %78 = select i1 %76, i1 %77, i1 false
  br i1 %78, label %.lr.ph.i, label %.preheader41.i, !llvm.loop !15

.preheader.i:                                     ; preds = %.lr.ph49.i, %.preheader41.i
  %.238.lcssa.i = phi ptr [ %.036.lcssa.i, %.preheader41.i ], [ %82, %.lr.ph49.i ]
  %79 = icmp ult ptr %.033.lcssa.i, %1
  br i1 %79, label %.lr.ph53.i, label %Abc_SortMergeCost2Reverse.exit

.lr.ph49.i:                                       ; preds = %.preheader41.i, %.lr.ph49.i
  %.248.i = phi ptr [ %80, %.lr.ph49.i ], [ %.0.lcssa.i, %.preheader41.i ]
  %.23847.i = phi ptr [ %82, %.lr.ph49.i ], [ %.036.lcssa.i, %.preheader41.i ]
  %80 = getelementptr inbounds nuw i8, ptr %.248.i, i64 4
  %81 = load i32, ptr %.248.i, align 4
  %82 = getelementptr inbounds nuw i8, ptr %.23847.i, i64 4
  store i32 %81, ptr %.23847.i, align 4
  %83 = icmp ult ptr %80, %48
  br i1 %83, label %.lr.ph49.i, label %.preheader.i, !llvm.loop !16

.lr.ph53.i:                                       ; preds = %.preheader.i, %.lr.ph53.i
  %.23552.i = phi ptr [ %84, %.lr.ph53.i ], [ %.033.lcssa.i, %.preheader.i ]
  %.351.i = phi ptr [ %86, %.lr.ph53.i ], [ %.238.lcssa.i, %.preheader.i ]
  %84 = getelementptr inbounds nuw i8, ptr %.23552.i, i64 4
  %85 = load i32, ptr %.23552.i, align 4
  %86 = getelementptr inbounds nuw i8, ptr %.351.i, i64 4
  store i32 %85, ptr %.351.i, align 4
  %87 = icmp ult ptr %84, %1
  br i1 %87, label %.lr.ph53.i, label %Abc_SortMergeCost2Reverse.exit, !llvm.loop !17

Abc_SortMergeCost2Reverse.exit:                   ; preds = %.lr.ph53.i, %.preheader.i
  %88 = and i64 %7, 8589934588
  tail call void @llvm.memcpy.p0.p0.i64(ptr align 4 %0, ptr align 4 %2, i64 %88, i1 false)
  br label %.loopexit

.loopexit:                                        ; preds = %._crit_edge, %.preheader, %4, %Abc_SortMergeCost2Reverse.exit, %10, %21
  ret void
}